; ModuleID = '29/1940.c'
source_filename = "29/1940.c"
target datalayout = "e-m:e-p270:32:32-p271:32:32-p272:64:64-i64:64-f80:128-n8:16:32:64-S128"
target triple = "x86_64-pc-linux-gnu"

@.str = private unnamed_addr constant [3 x i8] c"%d\00", align 1
@.str.1 = private unnamed_addr constant [6 x i8] c"%.3f\0A\00", align 1

; Function Attrs: noinline nounwind uwtable
define dso_local i32 @main() #0 {
  %1 = alloca i32, align 4
  %2 = alloca i32, align 4
  %3 = alloca i32, align 4
  %4 = alloca i32, align 4
  %5 = alloca float*, align 8
  %6 = alloca float*, align 8
  %7 = alloca i32, align 4
  %8 = alloca float, align 4
  %9 = alloca i32, align 4
  store i32 0, i32* %1, align 4
  %10 = call i32 (i8*, ...) @__isoc99_scanf(i8* getelementptr inbounds ([3 x i8], [3 x i8]* @.str, i64 0, i64 0), i32* %2)
  store i32 0, i32* %3, align 4
  br label %11

11:                                               ; preds = %107, %0
  %12 = load i32, i32* %3, align 4
  %13 = load i32, i32* %2, align 4
  %14 = icmp slt i32 %12, %13
  br i1 %14, label %15, label %110

15:                                               ; preds = %11
  %16 = call i32 (i8*, ...) @__isoc99_scanf(i8* getelementptr inbounds ([3 x i8], [3 x i8]* @.str, i64 0, i64 0), i32* %4)
  %17 = load i32, i32* %4, align 4
  %18 = load i32, i32* %3, align 4
  %19 = add nsw i32 %17, %18
  %20 = sext i32 %19 to i64
  %21 = mul i64 %20, 4
  %22 = call noalias i8* @malloc(i64 %21) #3
  %23 = bitcast i8* %22 to float*
  store float* %23, float** %5, align 8
  %24 = load i32, i32* %4, align 4
  %25 = load i32, i32* %3, align 4
  %26 = add nsw i32 %24, %25
  %27 = sext i32 %26 to i64
  %28 = mul i64 %27, 4
  %29 = call noalias i8* @malloc(i64 %28) #3
  %30 = bitcast i8* %29 to float*
  store float* %30, float** %6, align 8
  %31 = load float*, float** %5, align 8
  %32 = getelementptr inbounds float, float* %31, i64 0
  store float 1.000000e+00, float* %32, align 4
  %33 = load float*, float** %5, align 8
  %34 = getelementptr inbounds float, float* %33, i64 1
  store float 2.000000e+00, float* %34, align 4
  %35 = load float*, float** %6, align 8
  %36 = getelementptr inbounds float, float* %35, i64 0
  store float 2.000000e+00, float* %36, align 4
  %37 = load float*, float** %6, align 8
  %38 = getelementptr inbounds float, float* %37, i64 1
  store float 3.000000e+00, float* %38, align 4
  store i32 2, i32* %7, align 4
  br label %39

39:                                               ; preds = %78, %15
  %40 = load i32, i32* %7, align 4
  %41 = load i32, i32* %4, align 4
  %42 = icmp slt i32 %40, %41
  br i1 %42, label %43, label %81

43:                                               ; preds = %39
  %44 = load float*, float** %5, align 8
  %45 = load i32, i32* %7, align 4
  %46 = sub nsw i32 %45, 1
  %47 = sext i32 %46 to i64
  %48 = getelementptr inbounds float, float* %44, i64 %47
  %49 = load float, float* %48, align 4
  %50 = load float*, float** %5, align 8
  %51 = load i32, i32* %7, align 4
  %52 = sub nsw i32 %51, 2
  %53 = sext i32 %52 to i64
  %54 = getelementptr inbounds float, float* %50, i64 %53
  %55 = load float, float* %54, align 4
  %56 = fadd float %49, %55
  %57 = load float*, float** %5, align 8
  %58 = load i32, i32* %7, align 4
  %59 = sext i32 %58 to i64
  %60 = getelementptr inbounds float, float* %57, i64 %59
  store float %56, float* %60, align 4
  %61 = load float*, float** %6, align 8
  %62 = load i32, i32* %7, align 4
  %63 = sub nsw i32 %62, 1
  %64 = sext i32 %63 to i64
  %65 = getelementptr inbounds float, float* %61, i64 %64
  %66 = load float, float* %65, align 4
  %67 = load float*, float** %6, align 8
  %68 = load i32, i32* %7, align 4
  %69 = sub nsw i32 %68, 2
  %70 = sext i32 %69 to i64
  %71 = getelementptr inbounds float, float* %67, i64 %70
  %72 = load float, float* %71, align 4
  %73 = fadd float %66, %72
  %74 = load float*, float** %6, align 8
  %75 = load i32, i32* %7, align 4
  %76 = sext i32 %75 to i64
  %77 = getelementptr inbounds float, float* %74, i64 %76
  store float %73, float* %77, align 4
  br label %78

78:                                               ; preds = %43
  %79 = load i32, i32* %7, align 4
  %80 = add nsw i32 %79, 1
  store i32 %80, i32* %7, align 4
  br label %39

81:                                               ; preds = %39
  store float 0.000000e+00, float* %8, align 4
  store i32 0, i32* %9, align 4
  br label %82

82:                                               ; preds = %100, %81
  %83 = load i32, i32* %9, align 4
  %84 = load i32, i32* %4, align 4
  %85 = icmp slt i32 %83, %84
  br i1 %85, label %86, label %103

86:                                               ; preds = %82
  %87 = load float*, float** %6, align 8
  %88 = load i32, i32* %9, align 4
  %89 = sext i32 %88 to i64
  %90 = getelementptr inbounds float, float* %87, i64 %89
  %91 = load float, float* %90, align 4
  %92 = load float*, float** %5, align 8
  %93 = load i32, i32* %9, align 4
  %94 = sext i32 %93 to i64
  %95 = getelementptr inbounds float, float* %92, i64 %94
  %96 = load float, float* %95, align 4
  %97 = fdiv float %91, %96
  %98 = load float, float* %8, align 4
  %99 = fadd float %98, %97
  store float %99, float* %8, align 4
  br label %100

100:                                              ; preds = %86
  %101 = load i32, i32* %9, align 4
  %102 = add nsw i32 %101, 1
  store i32 %102, i32* %9, align 4
  br label %82

103:                                              ; preds = %82
  %104 = load float, float* %8, align 4
  %105 = fpext float %104 to double
  %106 = call i32 (i8*, ...) @printf(i8* getelementptr inbounds ([6 x i8], [6 x i8]* @.str.1, i64 0, i64 0), double %105)
  br label %107

107:                                              ; preds = %103
  %108 = load i32, i32* %3, align 4
  %109 = add nsw i32 %108, 1
  store i32 %109, i32* %3, align 4
  br label %11

110:                                              ; preds = %11
  %111 = load i32, i32* %1, align 4
  ret i32 %111
}

declare dso_local i32 @__isoc99_scanf(i8*, ...) #1

; Function Attrs: nounwind
declare dso_local noalias i8* @malloc(i64) #2

declare dso_local i32 @printf(i8*, ...) #1


!llvm.module.flags = !{!0}
!llvm.ident = !{!1}

!0 = !{i32 1, !"wchar_size", i32 4}
!1 = !{!"clang version 10.0.0-4ubuntu1 "}
